target datalayout = "e-m:e-p270:32:32-p271:32:32-p272:64:64-i64:64-i128:128-f80:128-n8:16:32:64-S128"
target triple = "x86_64-pc-linux-gnu"

%"class.std::error_code" = type { i32, ptr }
%"class.llvm::sys::fs::mapped_file_region" = type <{ i64, ptr, i32, [4 x i8] }>

; Function Attrs: mustprogress nounwind uwtable
define linkonce_odr hidden void @_ZNSt10error_codeC2EiRKNSt3_V214error_categoryE(ptr noundef nonnull align 8 dereferenceable(16) %0, i32 noundef %1, ptr noundef nonnull align 8 dereferenceable(8) %2) unnamed_addr #0 comdat align 2 {
  %4 = alloca ptr, align 8
  %5 = alloca i32, align 4
  %6 = alloca ptr, align 8
  store ptr %0, ptr %4, align 8
  store i32 %1, ptr %5, align 4
  store ptr %2, ptr %6, align 8
  %7 = load ptr, ptr %4, align 8
  %8 = getelementptr inbounds nuw %"class.std::error_code", ptr %7, i32 0, i32 0
  %9 = load i32, ptr %5, align 4
  store i32 %9, ptr %8, align 8
  %10 = getelementptr inbounds nuw %"class.std::error_code", ptr %7, i32 0, i32 1
  %11 = load ptr, ptr %6, align 8
  store ptr %11, ptr %10, align 8
  ret void
}

; Function Attrs: mustprogress nounwind uwtable
define linkonce_odr hidden void @_ZNSt10error_codeC2Ev(ptr noundef nonnull align 8 dereferenceable(16) %0) unnamed_addr #0 comdat align 2 {
  %2 = alloca ptr, align 8
  store ptr %0, ptr %2, align 8
  %3 = load ptr, ptr %2, align 8
  %4 = getelementptr inbounds nuw %"class.std::error_code", ptr %3, i32 0, i32 0
  store i32 0, ptr %4, align 8
  %5 = getelementptr inbounds nuw %"class.std::error_code", ptr %3, i32 0, i32 1
  %6 = call noundef nonnull align 8 dereferenceable(8) ptr @_ZNSt3_V215system_categoryEv() #13
  store ptr %6, ptr %5, align 8
  ret void
}

; Function Attrs: mustprogress nounwind uwtable
define linkonce_odr hidden { i32, ptr } @_ZN4llvm16errnoAsErrorCodeEv() #0 comdat {
  %1 = alloca %"class.std::error_code", align 8
  %2 = call ptr @__errno_location() #13
  %3 = load i32, ptr %2, align 4
  %4 = call noundef nonnull align 8 dereferenceable(8) ptr @_ZNSt3_V216generic_categoryEv() #13
  call void @_ZNSt10error_codeC2EiRKNSt3_V214error_categoryE(ptr noundef nonnull align 8 dereferenceable(16) %1, i32 noundef %3, ptr noundef nonnull align 8 dereferenceable(8) %4) #9
  %5 = load { i32, ptr }, ptr %1, align 8
  ret { i32, ptr } %5
}

; Function Attrs: mustprogress nounwind uwtable
define dso_local { i32, ptr } @_ZN4llvm3sys2fs18mapped_file_region4initEimNS2_7mapmodeE(ptr noundef nonnull align 8 dereferenceable(20) %0, i32 noundef %1, i64 noundef %2, i32 noundef %3) #0 align 2 {
  %5 = alloca %"class.std::error_code", align 8
  %6 = alloca ptr, align 8
  %7 = alloca i32, align 4
  %8 = alloca i64, align 8
  %9 = alloca i32, align 4
  %10 = alloca i32, align 4
  %11 = alloca i32, align 4
  store ptr %0, ptr %6, align 8
  store i32 %1, ptr %7, align 4
  store i64 %2, ptr %8, align 8
  store i32 %3, ptr %9, align 4
  %12 = load ptr, ptr %6, align 8
  %13 = load i32, ptr %9, align 4
  %14 = icmp eq i32 %13, 1
  %15 = select i1 %14, i32 1, i32 2
  store i32 %15, ptr %10, align 4
  %16 = load i32, ptr %9, align 4
  %17 = icmp eq i32 %16, 0
  %18 = select i1 %17, i32 1, i32 3
  store i32 %18, ptr %11, align 4
  %19 = load i32, ptr %10, align 4
  %20 = or i32 %19, 16384
  store i32 %20, ptr %10, align 4
  %21 = getelementptr inbounds nuw %"class.llvm::sys::fs::mapped_file_region", ptr %12, i32 0, i32 0
  %22 = load i64, ptr %21, align 8
  %23 = load i32, ptr %11, align 4
  %24 = load i32, ptr %10, align 4
  %25 = load i32, ptr %7, align 4
  %26 = load i64, ptr %8, align 8
  %27 = call ptr @mmap(ptr noundef null, i64 noundef %22, i32 noundef %23, i32 noundef %24, i32 noundef %25, i64 noundef %26) #9
  %28 = getelementptr inbounds nuw %"class.llvm::sys::fs::mapped_file_region", ptr %12, i32 0, i32 1
  store ptr %27, ptr %28, align 8
  %29 = getelementptr inbounds nuw %"class.llvm::sys::fs::mapped_file_region", ptr %12, i32 0, i32 1
  %30 = load ptr, ptr %29, align 8
  %31 = icmp eq ptr %30, inttoptr (i64 -1 to ptr)
  br i1 %31, label %32, label %38

32:                                               ; preds = %4
  %33 = call { i32, ptr } @_ZN4llvm16errnoAsErrorCodeEv()
  %34 = getelementptr inbounds nuw { i32, ptr }, ptr %5, i32 0, i32 0
  %35 = extractvalue { i32, ptr } %33, 0
  store i32 %35, ptr %34, align 8
  %36 = getelementptr inbounds nuw { i32, ptr }, ptr %5, i32 0, i32 1
  %37 = extractvalue { i32, ptr } %33, 1
  store ptr %37, ptr %36, align 8
  br label %39

38:                                               ; preds = %4
  call void @_ZNSt10error_codeC2Ev(ptr noundef nonnull align 8 dereferenceable(16) %5) #9
  br label %39

39:                                               ; preds = %38, %32
  %40 = load { i32, ptr }, ptr %5, align 8
  ret { i32, ptr } %40
}