; Function Attrs: mustprogress nounwind uwtable
define dso_local { i32, ptr } @_ZN4llvm3sys2fs18mapped_file_region4initEimNS2_7mapmodeE(ptr nocapture noundef nonnull align 8 dereferenceable(20) %0, i32 noundef %1, i64 noundef %2, i32 noundef %3) local_unnamed_addr #0 align 2 {
  %5 = icmp eq i32 %3, 1
  %6 = icmp eq i32 %3, 0
  %7 = select i1 %6, i32 1, i32 3
  %8 = select i1 %5, i32 16385, i32 16386
  %9 = load i64, ptr %0, align 8
  %10 = tail call ptr @mmap(ptr noundef null, i64 noundef %9, i32 noundef %7, i32 noundef %8, i32 noundef %1, i64 noundef %2) #30
  %11 = getelementptr inbounds nuw i8, ptr %0, i64 8
  store ptr %10, ptr %11, align 8
  %12 = icmp eq ptr %10, inttoptr (i64 -1 to ptr)
  br i1 %12, label %13, label %17

13:                                               ; preds = %4
  %14 = tail call ptr @__errno_location() #33
  %15 = load i32, ptr %14, align 4
  %16 = tail call noundef nonnull align 8 dereferenceable(8) ptr @_ZNSt3_V216generic_categoryEv() #33
  br label %19

17:                                               ; preds = %4
  %18 = tail call noundef nonnull align 8 dereferenceable(8) ptr @_ZNSt3_V215system_categoryEv() #33
  br label %19

19:                                               ; preds = %17, %13
  %.sroa.3.0 = phi ptr [ %16, %13 ], [ %18, %17 ]
  %.sroa.0.0 = phi i32 [ %15, %13 ], [ 0, %17 ]
  %.fca.0.insert = insertvalue { i32, ptr } poison, i32 %.sroa.0.0, 0
  %.fca.1.insert = insertvalue { i32, ptr } %.fca.0.insert, ptr %.sroa.3.0, 1
  ret { i32, ptr } %.fca.1.insert
}